Certificate:
    Data:
        Version: 3 (0x2)
        Serial Number: 1 (0x1)
        Signature Algorithm: sha256WithRSAEncryption
        Issuer: CN=hss.openair4G.eur, C=FR, ST=PACA, L=Aix, O=Eurecom, OU=CM
        Validity
            Not Before: Jun  8 14:39:38 2021 GMT
            Not After : Jun  8 14:39:38 2022 GMT
        Subject: C=FR, ST=PACA, O=Eurecom, OU=CM, CN=hss.openair4G.eur
        Subject Public Key Info:
            Public Key Algorithm: rsaEncryption
                RSA Public-Key: (1024 bit)
                Modulus:
                    00:d9:92:a7:2a:c1:24:df:13:f7:34:2e:85:63:49:
                    37:cd:67:26:a1:8c:9e:ee:37:7e:23:ff:f9:22:0a:
                    9a:bf:5d:10:e4:8e:f7:30:ea:91:81:32:01:a4:00:
                    0e:ab:f5:45:54:c9:0a:8f:ee:fc:3c:e5:bf:48:ea:
                    42:6a:70:a3:fb:ab:28:6b:81:4a:4b:8e:b6:36:2f:
                    f0:3e:50:32:3a:a5:28:df:37:6a:d7:77:17:1d:60:
                    1f:3b:7a:4c:a6:41:3b:24:40:8c:3f:79:48:22:07:
                    9c:3e:aa:1f:41:c4:79:7f:91:4d:d5:ea:c8:1c:a7:
                    11:41:3a:10:50:8a:17:3b:d7
                Exponent: 65537 (0x10001)
        X509v3 extensions:
            X509v3 Basic Constraints: 
                CA:FALSE
            Netscape Comment: 
                OpenSSL Generated Certificate
            X509v3 Subject Key Identifier: 
                4D:08:5D:2C:A7:2B:2A:29:2B:F8:C6:05:EF:A6:30:BE:BB:83:51:05
            X509v3 Authority Key Identifier: 
                keyid:4D:65:C5:9D:2D:4E:DB:E7:58:30:3B:DE:20:AB:12:9F:EB:0C:11:CA

    Signature Algorithm: sha256WithRSAEncryption
         6d:7d:79:de:ed:76:d8:59:c6:25:71:77:98:65:f7:f8:33:95:
         b8:43:88:38:2c:6e:2d:51:44:a5:65:a1:49:f3:cb:7b:95:7c:
         23:bd:17:4a:2e:cc:dc:9b:37:33:89:8b:75:96:bb:fc:ad:b7:
         03:92:95:1f:5b:65:3f:28:c7:c7:3d:07:17:60:b0:37:a9:1b:
         cc:0c:98:b5:5b:f9:c9:aa:d2:76:1a:ca:7f:04:07:4d:9c:4a:
         6e:14:d9:a5:66:7b:e2:fa:ac:3a:94:34:86:85:4d:45:11:0a:
         d8:cd:b0:0c:3f:d4:c5:d9:13:1f:5d:db:d9:66:b8:11:82:30:
         fb:2d
-----BEGIN CERTIFICATE-----
MIICrTCCAhagAwIBAgIBATANBgkqhkiG9w0BAQsFADBlMRowGAYDVQQDDBFoc3Mu
b3BlbmFpcjRHLmV1cjELMAkGA1UEBhMCRlIxDTALBgNVBAgMBFBBQ0ExDDAKBgNV
BAcMA0FpeDEQMA4GA1UECgwHRXVyZWNvbTELMAkGA1UECwwCQ00wHhcNMjEwNjA4
MTQzOTM4WhcNMjIwNjA4MTQzOTM4WjBXMQswCQYDVQQGEwJGUjENMAsGA1UECAwE
UEFDQTEQMA4GA1UECgwHRXVyZWNvbTELMAkGA1UECwwCQ00xGjAYBgNVBAMMEWhz
cy5vcGVuYWlyNEcuZXVyMIGfMA0GCSqGSIb3DQEBAQUAA4GNADCBiQKBgQDZkqcq
wSTfE/c0LoVjSTfNZyahjJ7uN34j//kiCpq/XRDkjvcw6pGBMgGkAA6r9UVUyQqP
7vw85b9I6kJqcKP7qyhrgUpLjrY2L/A+UDI6pSjfN2rXdxcdYB87ekymQTskQIw/
eUgiB5w+qh9BxHl/kU3V6sgcpxFBOhBQihc71wIDAQABo3sweTAJBgNVHRMEAjAA
MCwGCWCGSAGG+EIBDQQfFh1PcGVuU1NMIEdlbmVyYXRlZCBDZXJ0aWZpY2F0ZTAd
BgNVHQ4EFgQUTQhdLKcrKikr+MYF76YwvruDUQUwHwYDVR0jBBgwFoAUTWXFnS1O
2+dYMDveIKsSn+sMEcowDQYJKoZIhvcNAQELBQADgYEAbX153u122FnGJXF3mGX3
+DOVuEOIOCxuLVFEpWWhSfPLe5V8I70XSi7M3Js3M4mLdZa7/K23A5KVH1tlPyjH
xz0HF2CwN6kbzAyYtVv5yarSdhrKfwQHTZxKbhTZpWZ74vqsOpQ0hoVNRREK2M2w
DD/UxdkTH13b2Wa4EYIw+y0=
-----END CERTIFICATE-----
