Certificate:
    Data:
        Version: 3 (0x2)
        Serial Number: 1 (0x1)
        Signature Algorithm: sha256WithRSAEncryption
        Issuer: CN=mme.openair4G.eur, C=FR, ST=PACA, L=Aix, O=Eurecom, OU=CM
        Validity
            Not Before: Jun  8 14:39:59 2021 GMT
            Not After : Jun  8 14:39:59 2022 GMT
        Subject: C=FR, ST=PACA, O=Eurecom, OU=CM, CN=mme.openair4G.eur
        Subject Public Key Info:
            Public Key Algorithm: rsaEncryption
                RSA Public-Key: (1024 bit)
                Modulus:
                    00:c1:92:b1:01:a9:dd:38:7b:bc:1f:d2:ab:81:c9:
                    bf:86:4e:34:cb:d0:8b:a9:63:08:26:46:ff:ea:7c:
                    b6:11:56:22:dd:69:e6:52:cb:32:c3:98:01:7e:05:
                    ab:1e:7d:2c:b7:2f:de:fb:3b:c7:48:08:e3:48:1a:
                    26:8c:1f:7d:ed:4e:4a:1c:ed:cb:9d:a5:96:30:c5:
                    52:12:19:f9:32:80:5f:c7:d8:9e:fc:31:44:c6:53:
                    a6:2e:c0:13:d3:4b:2c:70:da:bd:af:94:53:0b:46:
                    4a:de:3b:00:3b:4c:0d:93:d1:18:2b:ff:56:c3:2b:
                    d3:a2:6e:0d:55:29:f5:b3:f7
                Exponent: 65537 (0x10001)
        X509v3 extensions:
            X509v3 Basic Constraints: 
                CA:FALSE
            Netscape Comment: 
                OpenSSL Generated Certificate
            X509v3 Subject Key Identifier: 
                2F:E1:67:88:F8:7C:E2:66:9B:F3:26:38:9E:3B:C8:70:F3:96:C8:B1
            X509v3 Authority Key Identifier: 
                keyid:50:8E:F0:39:C3:4A:6C:68:A9:D4:F8:D9:D0:19:58:DD:1E:CE:03:49

    Signature Algorithm: sha256WithRSAEncryption
         5e:9c:52:bd:58:11:cf:4e:6f:44:03:2e:ec:f1:57:92:58:9a:
         da:ff:ce:51:28:e0:37:e3:cf:85:4f:67:07:fc:39:d1:e1:14:
         22:63:90:0c:e6:c7:e8:7f:60:cd:2e:36:63:c5:be:00:0c:c3:
         9d:fe:e5:3f:04:75:e9:21:bf:a4:62:ec:f4:c4:10:bd:02:0b:
         7b:0a:ea:5d:75:57:1e:62:4a:b1:76:43:80:5f:f8:38:ae:b9:
         6a:79:e1:e7:62:2e:c7:7f:b9:6a:da:49:23:f3:16:8c:90:12:
         56:11:95:c1:ba:48:5f:ec:17:d7:bd:c7:23:51:1d:2d:20:7d:
         61:d8
-----BEGIN CERTIFICATE-----
MIICrTCCAhagAwIBAgIBATANBgkqhkiG9w0BAQsFADBlMRowGAYDVQQDDBFtbWUu
b3BlbmFpcjRHLmV1cjELMAkGA1UEBhMCRlIxDTALBgNVBAgMBFBBQ0ExDDAKBgNV
BAcMA0FpeDEQMA4GA1UECgwHRXVyZWNvbTELMAkGA1UECwwCQ00wHhcNMjEwNjA4
MTQzOTU5WhcNMjIwNjA4MTQzOTU5WjBXMQswCQYDVQQGEwJGUjENMAsGA1UECAwE
UEFDQTEQMA4GA1UECgwHRXVyZWNvbTELMAkGA1UECwwCQ00xGjAYBgNVBAMMEW1t
ZS5vcGVuYWlyNEcuZXVyMIGfMA0GCSqGSIb3DQEBAQUAA4GNADCBiQKBgQDBkrEB
qd04e7wf0quByb+GTjTL0IupYwgmRv/qfLYRViLdaeZSyzLDmAF+BasefSy3L977
O8dICONIGiaMH33tTkoc7cudpZYwxVISGfkygF/H2J78MUTGU6YuwBPTSyxw2r2v
lFMLRkreOwA7TA2T0Rgr/1bDK9Oibg1VKfWz9wIDAQABo3sweTAJBgNVHRMEAjAA
MCwGCWCGSAGG+EIBDQQfFh1PcGVuU1NMIEdlbmVyYXRlZCBDZXJ0aWZpY2F0ZTAd
BgNVHQ4EFgQUL+FniPh84mab8yY4njvIcPOWyLEwHwYDVR0jBBgwFoAUUI7wOcNK
bGip1PjZ0BlY3R7OA0kwDQYJKoZIhvcNAQELBQADgYEAXpxSvVgRz05vRAMu7PFX
klia2v/OUSjgN+PPhU9nB/w50eEUImOQDObH6H9gzS42Y8W+AAzDnf7lPwR16SG/
pGLs9MQQvQILewrqXXVXHmJKsXZDgF/4OK65annh52Iux3+5atpJI/MWjJASVhGV
wbpIX+wX173HI1EdLSB9Ydg=
-----END CERTIFICATE-----
